; Function Attrs: nounwind uwtable
define ptr @l_Lake_Log_filter(ptr noundef %0, ptr noundef readonly captures(none) %1) local_unnamed_addr #1 {
lean_nat_lt.exit:
  %2 = getelementptr i8, ptr %1, i64 8
  %.val = load i64, ptr %2, align 8, !tbaa !16
  %.mask = and i64 %.val, 9223372036854775807
  %.not = icmp eq i64 %.mask, 0
  br i1 %.not, label %lean_dec.exit24, label %lean_dec.exit

lean_dec.exit24:                                  ; preds = %lean_nat_lt.exit
  %3 = ptrtoint ptr %0 to i64
  %4 = and i64 %3, 1
  %.not36 = icmp eq i64 %4, 0
  br i1 %.not36, label %5, label %lean_dec.exit23

5:                                                ; preds = %lean_dec.exit24
  %6 = load i32, ptr %0, align 4, !tbaa !4
  %7 = icmp sgt i32 %6, 1
  br i1 %7, label %8, label %10, !prof !9

8:                                                ; preds = %5
  %9 = add nsw i32 %6, -1
  store i32 %9, ptr %0, align 4, !tbaa !4
  br label %lean_dec.exit23

10:                                               ; preds = %5
  %.not.i25 = icmp eq i32 %6, 0
  br i1 %.not.i25, label %lean_dec.exit23, label %11

11:                                               ; preds = %10
  tail call void @lean_dec_ref_cold(ptr noundef nonnull %0) #9
  br label %lean_dec.exit23

lean_dec.exit23:                                  ; preds = %11, %10, %8, %lean_dec.exit24
  %12 = load ptr, ptr @l___private_Lake_Util_Log_0__Lake_fromJsonLogLevel____x40_Lake_Util_Log___hyg_921____closed__1, align 8, !tbaa !10
  br label %15

lean_dec.exit:                                    ; preds = %lean_nat_lt.exit
  %13 = load ptr, ptr @l___private_Lake_Util_Log_0__Lake_fromJsonLogLevel____x40_Lake_Util_Log___hyg_921____closed__1, align 8, !tbaa !10
  %14 = tail call ptr @l_Array_foldlMUnsafe_fold___at_Lake_Log_filter___spec__1(ptr noundef %0, ptr noundef nonnull %1, i64 noundef 0, i64 noundef %.mask, ptr noundef %13)
  br label %15

15:                                               ; preds = %lean_dec.exit, %lean_dec.exit23
  %.0 = phi ptr [ %12, %lean_dec.exit23 ], [ %14, %lean_dec.exit ]
  ret ptr %.0
}